target datalayout = "e-m:e-p270:32:32-p271:32:32-p272:64:64-i64:64-i128:128-f80:128-n8:16:32:64-S128"
target triple = "x86_64-pc-linux-gnu"

@H5P_CLS_DATASET_XFER_ID_g = external global i64, align 8
@H5_libinit_g = external global i8, align 1
@H5_libterm_g = external global i8, align 1
@.str.1 = private unnamed_addr constant [101 x i8] c"generated/home/dtcxzyw/WorkSpace/Projects/compilers/llvm-opt-benchmark/bench/hdf5/hdf5/src/H5Pdxpl.c\00", align 1
@H5E_FUNC_g = external global i64, align 8
@H5E_CANTINIT_g = external global i64, align 8
@.str.2 = private unnamed_addr constant [30 x i8] c"library initialization failed\00", align 1
@H5E_CANTSET_g = external global i64, align 8
@.str.3 = private unnamed_addr constant [22 x i8] c"can't set API context\00", align 1
@H5E_ID_g = external global i64, align 8
@H5E_BADID_g = external global i64, align 8
@.str.5 = private unnamed_addr constant [25 x i8] c"can't find object for ID\00", align 1
@H5E_PLIST_g = external global i64, align 8
@H5E_CANTGET_g = external global i64, align 8
@.str.24 = private unnamed_addr constant [20 x i8] c"unable to get value\00", align 1
@.str.31 = private unnamed_addr constant [11 x i8] c"vlen_alloc\00", align 1
@.str.32 = private unnamed_addr constant [16 x i8] c"vlen_alloc_info\00", align 1
@.str.33 = private unnamed_addr constant [10 x i8] c"vlen_free\00", align 1
@.str.34 = private unnamed_addr constant [15 x i8] c"vlen_free_info\00", align 1
@__func__.H5Pget_vlen_mem_manager = private unnamed_addr constant [24 x i8] c"H5Pget_vlen_mem_manager\00", align 1

; Function Attrs: nounwind uwtable
define i32 @H5Pget_vlen_mem_manager(i64 noundef %0, ptr noundef %1, ptr noundef %2, ptr noundef %3, ptr noundef %4) #0 {
  %6 = alloca i64, align 8
  %7 = alloca ptr, align 8
  %8 = alloca ptr, align 8
  %9 = alloca ptr, align 8
  %10 = alloca ptr, align 8
  %11 = alloca ptr, align 8
  %12 = alloca i32, align 4
  %13 = alloca i8, align 1
  %14 = alloca i8, align 1
  store i64 %0, ptr %6, align 8
  store ptr %1, ptr %7, align 8
  store ptr %2, ptr %8, align 8
  store ptr %3, ptr %9, align 8
  store ptr %4, ptr %10, align 8
  store i32 0, ptr %12, align 4
  store i8 0, ptr %13, align 1
  store i8 0, ptr %14, align 1
  %15 = load i8, ptr @H5_libinit_g, align 1
  %16 = trunc i8 %15 to i1
  br i1 %16, label %21, label %17

17:                                               ; preds = %5
  %18 = load i8, ptr @H5_libterm_g, align 1
  %19 = trunc i8 %18 to i1
  %20 = xor i1 %19, true
  br label %21

21:                                               ; preds = %17, %5
  %22 = phi i1 [ false, %5 ], [ %20, %17 ]
  %23 = xor i1 %22, true
  %24 = xor i1 %23, true
  %25 = zext i1 %24 to i32
  %26 = sext i32 %25 to i64
  %27 = icmp ne i64 %26, 0
  br i1 %27, label %28, label %52

28:                                               ; preds = %21
  %29 = call i32 @H5_init_library()
  %30 = icmp slt i32 %29, 0
  %31 = xor i1 %30, true
  %32 = xor i1 %31, true
  %33 = zext i1 %32 to i32
  %34 = sext i32 %33 to i64
  %35 = icmp ne i64 %34, 0
  br i1 %35, label %36, label %51

36:                                               ; preds = %28
  br label %37

37:                                               ; preds = %36
  br label %38

38:                                               ; preds = %37
  br label %39

39:                                               ; preds = %38
  %40 = load i64, ptr @H5E_FUNC_g, align 8
  %41 = load i64, ptr @H5E_CANTINIT_g, align 8
  %42 = call i32 (ptr, ptr, i32, i64, i64, ptr, ...) @H5E_printf_stack(ptr noundef @.str.1, ptr noundef @__func__.H5Pget_vlen_mem_manager, i32 noundef 1576, i64 noundef %40, i64 noundef %41, ptr noundef @.str.2)
  br label %43

43:                                               ; preds = %39
  store i8 1, ptr %14, align 1
  %44 = load i8, ptr %14, align 1
  %45 = trunc i8 %44 to i1
  %46 = zext i1 %45 to i8
  store i8 %46, ptr %14, align 1
  br label %47

47:                                               ; preds = %43
  br label %48

48:                                               ; preds = %47
  store i32 -1, ptr %12, align 4
  br label %194

49:                                               ; No predecessors!
  br label %50

50:                                               ; preds = %49
  br label %51

51:                                               ; preds = %50, %28
  br label %52

52:                                               ; preds = %51, %21
  %53 = call i32 @H5CX_push()
  %54 = icmp slt i32 %53, 0
  %55 = xor i1 %54, true
  %56 = xor i1 %55, true
  %57 = zext i1 %56 to i32
  %58 = sext i32 %57 to i64
  %59 = icmp ne i64 %58, 0
  br i1 %59, label %60, label %75

60:                                               ; preds = %52
  br label %61

61:                                               ; preds = %60
  br label %62

62:                                               ; preds = %61
  br label %63

63:                                               ; preds = %62
  %64 = load i64, ptr @H5E_FUNC_g, align 8
  %65 = load i64, ptr @H5E_CANTSET_g, align 8
  %66 = call i32 (ptr, ptr, i32, i64, i64, ptr, ...) @H5E_printf_stack(ptr noundef @.str.1, ptr noundef @__func__.H5Pget_vlen_mem_manager, i32 noundef 1576, i64 noundef %64, i64 noundef %65, ptr noundef @.str.3)
  br label %67

67:                                               ; preds = %63
  store i8 1, ptr %14, align 1
  %68 = load i8, ptr %14, align 1
  %69 = trunc i8 %68 to i1
  %70 = zext i1 %69 to i8
  store i8 %70, ptr %14, align 1
  br label %71

71:                                               ; preds = %67
  br label %72

72:                                               ; preds = %71
  store i32 -1, ptr %12, align 4
  br label %194

73:                                               ; No predecessors!
  br label %74

74:                                               ; preds = %73
  br label %76

75:                                               ; preds = %52
  store i8 1, ptr %13, align 1
  br label %76

76:                                               ; preds = %75, %74
  %77 = call i32 @H5E_clear_stack()
  %78 = load i64, ptr %6, align 8
  %79 = load i64, ptr @H5P_CLS_DATASET_XFER_ID_g, align 8
  %80 = call ptr @H5P_object_verify(i64 noundef %78, i64 noundef %79)
  store ptr %80, ptr %11, align 8
  %81 = icmp eq ptr null, %80
  br i1 %81, label %82, label %97

82:                                               ; preds = %76
  br label %83

83:                                               ; preds = %82
  br label %84

84:                                               ; preds = %83
  br label %85

85:                                               ; preds = %84
  %86 = load i64, ptr @H5E_ID_g, align 8
  %87 = load i64, ptr @H5E_BADID_g, align 8
  %88 = call i32 (ptr, ptr, i32, i64, i64, ptr, ...) @H5E_printf_stack(ptr noundef @.str.1, ptr noundef @__func__.H5Pget_vlen_mem_manager, i32 noundef 1580, i64 noundef %86, i64 noundef %87, ptr noundef @.str.5)
  br label %89

89:                                               ; preds = %85
  store i8 1, ptr %14, align 1
  %90 = load i8, ptr %14, align 1
  %91 = trunc i8 %90 to i1
  %92 = zext i1 %91 to i8
  store i8 %92, ptr %14, align 1
  br label %93

93:                                               ; preds = %89
  br label %94

94:                                               ; preds = %93
  store i32 -1, ptr %12, align 4
  br label %194

95:                                               ; No predecessors!
  br label %96

96:                                               ; preds = %95
  br label %97

97:                                               ; preds = %96, %76
  %98 = load ptr, ptr %7, align 8
  %99 = icmp ne ptr %98, null
  br i1 %99, label %100, label %121

100:                                              ; preds = %97
  %101 = load ptr, ptr %11, align 8
  %102 = load ptr, ptr %7, align 8
  %103 = call i32 @H5P_get(ptr noundef %101, ptr noundef @.str.31, ptr noundef %102)
  %104 = icmp slt i32 %103, 0
  br i1 %104, label %105, label %120

105:                                              ; preds = %100
  br label %106

106:                                              ; preds = %105
  br label %107

107:                                              ; preds = %106
  br label %108

108:                                              ; preds = %107
  %109 = load i64, ptr @H5E_PLIST_g, align 8
  %110 = load i64, ptr @H5E_CANTGET_g, align 8
  %111 = call i32 (ptr, ptr, i32, i64, i64, ptr, ...) @H5E_printf_stack(ptr noundef @.str.1, ptr noundef @__func__.H5Pget_vlen_mem_manager, i32 noundef 1584, i64 noundef %109, i64 noundef %110, ptr noundef @.str.24)
  br label %112

112:                                              ; preds = %108
  store i8 1, ptr %14, align 1
  %113 = load i8, ptr %14, align 1
  %114 = trunc i8 %113 to i1
  %115 = zext i1 %114 to i8
  store i8 %115, ptr %14, align 1
  br label %116

116:                                              ; preds = %112
  br label %117

117:                                              ; preds = %116
  store i32 -1, ptr %12, align 4
  br label %194

118:                                              ; No predecessors!
  br label %119

119:                                              ; preds = %118
  br label %120

120:                                              ; preds = %119, %100
  br label %121

121:                                              ; preds = %120, %97
  %122 = load ptr, ptr %8, align 8
  %123 = icmp ne ptr %122, null
  br i1 %123, label %124, label %145

124:                                              ; preds = %121
  %125 = load ptr, ptr %11, align 8
  %126 = load ptr, ptr %8, align 8
  %127 = call i32 @H5P_get(ptr noundef %125, ptr noundef @.str.32, ptr noundef %126)
  %128 = icmp slt i32 %127, 0
  br i1 %128, label %129, label %144

129:                                              ; preds = %124
  br label %130

130:                                              ; preds = %129
  br label %131

131:                                              ; preds = %130
  br label %132

132:                                              ; preds = %131
  %133 = load i64, ptr @H5E_PLIST_g, align 8
  %134 = load i64, ptr @H5E_CANTGET_g, align 8
  %135 = call i32 (ptr, ptr, i32, i64, i64, ptr, ...) @H5E_printf_stack(ptr noundef @.str.1, ptr noundef @__func__.H5Pget_vlen_mem_manager, i32 noundef 1587, i64 noundef %133, i64 noundef %134, ptr noundef @.str.24)
  br label %136

136:                                              ; preds = %132
  store i8 1, ptr %14, align 1
  %137 = load i8, ptr %14, align 1
  %138 = trunc i8 %137 to i1
  %139 = zext i1 %138 to i8
  store i8 %139, ptr %14, align 1
  br label %140

140:                                              ; preds = %136
  br label %141

141:                                              ; preds = %140
  store i32 -1, ptr %12, align 4
  br label %194

142:                                              ; No predecessors!
  br label %143

143:                                              ; preds = %142
  br label %144

144:                                              ; preds = %143, %124
  br label %145

145:                                              ; preds = %144, %121
  %146 = load ptr, ptr %9, align 8
  %147 = icmp ne ptr %146, null
  br i1 %147, label %148, label %169

148:                                              ; preds = %145
  %149 = load ptr, ptr %11, align 8
  %150 = load ptr, ptr %9, align 8
  %151 = call i32 @H5P_get(ptr noundef %149, ptr noundef @.str.33, ptr noundef %150)
  %152 = icmp slt i32 %151, 0
  br i1 %152, label %153, label %168

153:                                              ; preds = %148
  br label %154

154:                                              ; preds = %153
  br label %155

155:                                              ; preds = %154
  br label %156

156:                                              ; preds = %155
  %157 = load i64, ptr @H5E_PLIST_g, align 8
  %158 = load i64, ptr @H5E_CANTGET_g, align 8
  %159 = call i32 (ptr, ptr, i32, i64, i64, ptr, ...) @H5E_printf_stack(ptr noundef @.str.1, ptr noundef @__func__.H5Pget_vlen_mem_manager, i32 noundef 1590, i64 noundef %157, i64 noundef %158, ptr noundef @.str.24)
  br label %160

160:                                              ; preds = %156
  store i8 1, ptr %14, align 1
  %161 = load i8, ptr %14, align 1
  %162 = trunc i8 %161 to i1
  %163 = zext i1 %162 to i8
  store i8 %163, ptr %14, align 1
  br label %164

164:                                              ; preds = %160
  br label %165

165:                                              ; preds = %164
  store i32 -1, ptr %12, align 4
  br label %194

166:                                              ; No predecessors!
  br label %167

167:                                              ; preds = %166
  br label %168

168:                                              ; preds = %167, %148
  br label %169

169:                                              ; preds = %168, %145
  %170 = load ptr, ptr %10, align 8
  %171 = icmp ne ptr %170, null
  br i1 %171, label %172, label %193

172:                                              ; preds = %169
  %173 = load ptr, ptr %11, align 8
  %174 = load ptr, ptr %10, align 8
  %175 = call i32 @H5P_get(ptr noundef %173, ptr noundef @.str.34, ptr noundef %174)
  %176 = icmp slt i32 %175, 0
  br i1 %176, label %177, label %192

177:                                              ; preds = %172
  br label %178

178:                                              ; preds = %177
  br label %179

179:                                              ; preds = %178
  br label %180

180:                                              ; preds = %179
  %181 = load i64, ptr @H5E_PLIST_g, align 8
  %182 = load i64, ptr @H5E_CANTGET_g, align 8
  %183 = call i32 (ptr, ptr, i32, i64, i64, ptr, ...) @H5E_printf_stack(ptr noundef @.str.1, ptr noundef @__func__.H5Pget_vlen_mem_manager, i32 noundef 1593, i64 noundef %181, i64 noundef %182, ptr noundef @.str.24)
  br label %184

184:                                              ; preds = %180
  store i8 1, ptr %14, align 1
  %185 = load i8, ptr %14, align 1
  %186 = trunc i8 %185 to i1
  %187 = zext i1 %186 to i8
  store i8 %187, ptr %14, align 1
  br label %188

188:                                              ; preds = %184
  br label %189

189:                                              ; preds = %188
  store i32 -1, ptr %12, align 4
  br label %194

190:                                              ; No predecessors!
  br label %191

191:                                              ; preds = %190
  br label %192

192:                                              ; preds = %191, %172
  br label %193

193:                                              ; preds = %192, %169
  br label %194

194:                                              ; preds = %193, %189, %165, %141, %117, %94, %72, %48
  %195 = load i8, ptr %13, align 1
  %196 = trunc i8 %195 to i1
  %197 = xor i1 %196, true
  %198 = xor i1 %197, true
  %199 = zext i1 %198 to i32
  %200 = sext i32 %199 to i64
  %201 = icmp ne i64 %200, 0
  br i1 %201, label %202, label %204

202:                                              ; preds = %194
  %203 = call i32 @H5CX_pop(i1 noundef zeroext true)
  store i8 0, ptr %13, align 1
  br label %204

204:                                              ; preds = %202, %194
  %205 = load i8, ptr %14, align 1
  %206 = trunc i8 %205 to i1
  %207 = xor i1 %206, true
  %208 = xor i1 %207, true
  %209 = zext i1 %208 to i32
  %210 = sext i32 %209 to i64
  %211 = icmp ne i64 %210, 0
  br i1 %211, label %212, label %214

212:                                              ; preds = %204
  %213 = call i32 @H5E_dump_api_stack()
  br label %214

214:                                              ; preds = %212, %204
  %215 = load i32, ptr %12, align 4
  ret i32 %215
}