; Function Attrs: nounwind uwtable
define range(i32 -1, 1) i32 @H5Pget_vlen_mem_manager(i64 noundef %0, ptr noundef %1, ptr noundef %2, ptr noundef %3, ptr noundef %4) local_unnamed_addr #0 {
  %6 = load i8, ptr @H5_libinit_g, align 1
  %7 = trunc i8 %6 to i1
  %8 = load i8, ptr @H5_libterm_g, align 1
  %9 = trunc i8 %8 to i1
  %10 = select i1 %7, i1 true, i1 %9
  br i1 %10, label %18, label %11

11:                                               ; preds = %5
  %12 = tail call i32 @H5_init_library() #8
  %13 = icmp slt i32 %12, 0
  br i1 %13, label %14, label %18

14:                                               ; preds = %11
  %15 = load i64, ptr @H5E_FUNC_g, align 8
  %16 = load i64, ptr @H5E_CANTINIT_g, align 8
  %17 = tail call i32 (ptr, ptr, i32, i64, i64, ptr, ...) @H5E_printf_stack(ptr noundef nonnull @.str.1, ptr noundef nonnull @__func__.H5Pget_vlen_mem_manager, i32 noundef 1576, i64 noundef %15, i64 noundef %16, ptr noundef nonnull @.str.2) #8
  br label %.thread40

18:                                               ; preds = %11, %5
  %19 = tail call i32 @H5CX_push() #8
  %20 = icmp slt i32 %19, 0
  br i1 %20, label %21, label %25

21:                                               ; preds = %18
  %22 = load i64, ptr @H5E_FUNC_g, align 8
  %23 = load i64, ptr @H5E_CANTSET_g, align 8
  %24 = tail call i32 (ptr, ptr, i32, i64, i64, ptr, ...) @H5E_printf_stack(ptr noundef nonnull @.str.1, ptr noundef nonnull @__func__.H5Pget_vlen_mem_manager, i32 noundef 1576, i64 noundef %22, i64 noundef %23, ptr noundef nonnull @.str.3) #8
  br label %.thread40

25:                                               ; preds = %18
  %26 = tail call i32 @H5E_clear_stack() #8
  %27 = load i64, ptr @H5P_CLS_DATASET_XFER_ID_g, align 8
  %28 = tail call ptr @H5P_object_verify(i64 noundef %0, i64 noundef %27) #8
  %29 = icmp eq ptr %28, null
  br i1 %29, label %30, label %34

30:                                               ; preds = %25
  %31 = load i64, ptr @H5E_ID_g, align 8
  %32 = load i64, ptr @H5E_BADID_g, align 8
  %33 = tail call i32 (ptr, ptr, i32, i64, i64, ptr, ...) @H5E_printf_stack(ptr noundef nonnull @.str.1, ptr noundef nonnull @__func__.H5Pget_vlen_mem_manager, i32 noundef 1580, i64 noundef %31, i64 noundef %32, ptr noundef nonnull @.str.5) #8
  br label %.thread46

34:                                               ; preds = %25
  %.not = icmp eq ptr %1, null
  br i1 %.not, label %42, label %35

35:                                               ; preds = %34
  %36 = tail call i32 @H5P_get(ptr noundef nonnull %28, ptr noundef nonnull @.str.31, ptr noundef nonnull %1) #8
  %37 = icmp slt i32 %36, 0
  br i1 %37, label %38, label %42

38:                                               ; preds = %35
  %39 = load i64, ptr @H5E_PLIST_g, align 8
  %40 = load i64, ptr @H5E_CANTGET_g, align 8
  %41 = tail call i32 (ptr, ptr, i32, i64, i64, ptr, ...) @H5E_printf_stack(ptr noundef nonnull @.str.1, ptr noundef nonnull @__func__.H5Pget_vlen_mem_manager, i32 noundef 1584, i64 noundef %39, i64 noundef %40, ptr noundef nonnull @.str.24) #8
  br label %.thread46

42:                                               ; preds = %35, %34
  %.not29 = icmp eq ptr %2, null
  br i1 %.not29, label %50, label %43

43:                                               ; preds = %42
  %44 = tail call i32 @H5P_get(ptr noundef nonnull %28, ptr noundef nonnull @.str.32, ptr noundef nonnull %2) #8
  %45 = icmp slt i32 %44, 0
  br i1 %45, label %46, label %50

46:                                               ; preds = %43
  %47 = load i64, ptr @H5E_PLIST_g, align 8
  %48 = load i64, ptr @H5E_CANTGET_g, align 8
  %49 = tail call i32 (ptr, ptr, i32, i64, i64, ptr, ...) @H5E_printf_stack(ptr noundef nonnull @.str.1, ptr noundef nonnull @__func__.H5Pget_vlen_mem_manager, i32 noundef 1587, i64 noundef %47, i64 noundef %48, ptr noundef nonnull @.str.24) #8
  br label %.thread46

50:                                               ; preds = %43, %42
  %.not30 = icmp eq ptr %3, null
  br i1 %.not30, label %58, label %51

51:                                               ; preds = %50
  %52 = tail call i32 @H5P_get(ptr noundef nonnull %28, ptr noundef nonnull @.str.33, ptr noundef nonnull %3) #8
  %53 = icmp slt i32 %52, 0
  br i1 %53, label %54, label %58

54:                                               ; preds = %51
  %55 = load i64, ptr @H5E_PLIST_g, align 8
  %56 = load i64, ptr @H5E_CANTGET_g, align 8
  %57 = tail call i32 (ptr, ptr, i32, i64, i64, ptr, ...) @H5E_printf_stack(ptr noundef nonnull @.str.1, ptr noundef nonnull @__func__.H5Pget_vlen_mem_manager, i32 noundef 1590, i64 noundef %55, i64 noundef %56, ptr noundef nonnull @.str.24) #8
  br label %.thread46

58:                                               ; preds = %51, %50
  %.not31 = icmp eq ptr %4, null
  br i1 %.not31, label %67, label %59

59:                                               ; preds = %58
  %60 = tail call i32 @H5P_get(ptr noundef nonnull %28, ptr noundef nonnull @.str.34, ptr noundef nonnull %4) #8
  %61 = icmp slt i32 %60, 0
  br i1 %61, label %62, label %67

62:                                               ; preds = %59
  %63 = load i64, ptr @H5E_PLIST_g, align 8
  %64 = load i64, ptr @H5E_CANTGET_g, align 8
  %65 = tail call i32 (ptr, ptr, i32, i64, i64, ptr, ...) @H5E_printf_stack(ptr noundef nonnull @.str.1, ptr noundef nonnull @__func__.H5Pget_vlen_mem_manager, i32 noundef 1593, i64 noundef %63, i64 noundef %64, ptr noundef nonnull @.str.24) #8
  br label %.thread46

.thread46:                                        ; preds = %62, %54, %46, %38, %30
  %66 = tail call i32 @H5CX_pop(i1 noundef zeroext true) #8
  br label %.thread40

67:                                               ; preds = %58, %59
  %68 = tail call i32 @H5CX_pop(i1 noundef zeroext true) #8
  br label %70

.thread40:                                        ; preds = %21, %14, %.thread46
  %69 = tail call i32 @H5E_dump_api_stack() #8
  br label %70

70:                                               ; preds = %67, %.thread40
  %.0233543 = phi i32 [ -1, %.thread40 ], [ 0, %67 ]
  ret i32 %.0233543
}